target datalayout = "e-m:e-p270:32:32-p271:32:32-p272:64:64-i64:64-i128:128-f80:128-n8:16:32:64-S128"
target triple = "x86_64-unknown-linux-gnu"

%"class.cvc5::internal::theory::datatypes::DatatypesRewriter" = type { %"class.cvc5::internal::theory::TheoryRewriter", ptr, ptr }
%"class.cvc5::internal::theory::TheoryRewriter" = type { ptr }

@_ZTVN4cvc58internal6theory14TheoryRewriterE = external unnamed_addr constant { [12 x ptr] }, align 8

; Function Attrs: mustprogress nounwind uwtable
define linkonce_odr hidden void @_ZN4cvc58internal6theory14TheoryRewriterC2Ev(ptr noundef nonnull align 8 dereferenceable(8) %this) unnamed_addr #4 comdat align 2 {
entry:
  %this.addr = alloca ptr, align 8
  store ptr %this, ptr %this.addr, align 8
  %this1 = load ptr, ptr %this.addr, align 8
  store ptr getelementptr inbounds ({ [12 x ptr] }, ptr @_ZTVN4cvc58internal6theory14TheoryRewriterE, i32 0, i32 0, i32 2), ptr %this1, align 8
  ret void
}

; Function Attrs: mustprogress nounwind uwtable
define hidden void @_ZN4cvc58internal6theory9datatypes17DatatypesRewriterC2EPNS1_9EvaluatorERKNS0_7OptionsE(ptr noundef nonnull align 8 dereferenceable(24) %this, ptr noundef %sygusEval, ptr noundef nonnull align 8 dereferenceable(392) %opts) unnamed_addr #4 align 2 {
entry:
  %this.addr = alloca ptr, align 8
  %sygusEval.addr = alloca ptr, align 8
  %opts.addr = alloca ptr, align 8
  store ptr %this, ptr %this.addr, align 8
  store ptr %sygusEval, ptr %sygusEval.addr, align 8
  store ptr %opts, ptr %opts.addr, align 8
  %this1 = load ptr, ptr %this.addr, align 8
  call void @_ZN4cvc58internal6theory14TheoryRewriterC2Ev(ptr noundef nonnull align 8 dereferenceable(8) %this1) #3
  store ptr getelementptr inbounds ({ [12 x ptr] }, ptr @_ZTVN4cvc58internal6theory9datatypes17DatatypesRewriterE, i32 0, i32 0, i32 2), ptr %this1, align 8
  %d_sygusEval = getelementptr inbounds %"class.cvc5::internal::theory::datatypes::DatatypesRewriter", ptr %this1, i32 0, i32 1
  %0 = load ptr, ptr %sygusEval.addr, align 8
  store ptr %0, ptr %d_sygusEval, align 8
  %d_opts = getelementptr inbounds %"class.cvc5::internal::theory::datatypes::DatatypesRewriter", ptr %this1, i32 0, i32 2
  %1 = load ptr, ptr %opts.addr, align 8
  store ptr %1, ptr %d_opts, align 8
  ret void
}