; Function Attrs: mustprogress nofree norecurse nosync nounwind willreturn memory(argmem: write) uwtable
define hidden void @_ZN4cvc58internal6theory9datatypes17DatatypesRewriterC2EPNS1_9EvaluatorERKNS0_7OptionsE(ptr nocapture noundef nonnull writeonly align 8 dereferenceable(24) %this, ptr noundef %sygusEval, ptr noundef nonnull align 8 dereferenceable(392) %opts) unnamed_addr #3 align 2 {
entry:
  store ptr getelementptr inbounds ({ [12 x ptr] }, ptr @_ZTVN4cvc58internal6theory9datatypes17DatatypesRewriterE, i64 0, i32 0, i64 2), ptr %this, align 8
  %d_sygusEval = getelementptr inbounds i8, ptr %this, i64 8
  store ptr %sygusEval, ptr %d_sygusEval, align 8
  %d_opts = getelementptr inbounds i8, ptr %this, i64 16
  store ptr %opts, ptr %d_opts, align 8
  ret void
}